; Function Attrs: nounwind uwtable
define hidden ptr @X11_GLES_GetVisual(ptr noundef readonly captures(none) %0, ptr noundef %1, i32 noundef %2, i1 noundef zeroext %3) local_unnamed_addr #0 {
  %5 = alloca i32, align 4
  %6 = alloca %struct.XVisualInfo, align 8
  %7 = alloca i32, align 4
  call void @llvm.lifetime.start.p0(i64 4, ptr nonnull %5) #4
  store i32 0, ptr %5, align 4
  call void @llvm.lifetime.start.p0(i64 64, ptr nonnull %6) #4
  call void @llvm.lifetime.start.p0(i64 4, ptr nonnull %7) #4
  store i32 0, ptr %7, align 4
  %8 = getelementptr inbounds nuw i8, ptr %0, i64 1672
  %9 = load ptr, ptr %8, align 8
  %.not = icmp eq ptr %9, null
  br i1 %.not, label %.thread121, label %10

10:                                               ; preds = %4
  %11 = getelementptr inbounds nuw i8, ptr %9, i64 176
  %12 = load ptr, ptr %11, align 8
  %13 = getelementptr inbounds nuw i8, ptr %9, i64 16
  %14 = load ptr, ptr %13, align 8
  %15 = getelementptr inbounds nuw i8, ptr %9, i64 24
  %16 = load ptr, ptr %15, align 8
  %17 = call i32 %12(ptr noundef %14, ptr noundef %16, i32 noundef 12334, ptr noundef nonnull %5) #4
  %18 = icmp eq i32 %17, 0
  br i1 %18, label %.thread, label %19

.thread:                                          ; preds = %10
  store i32 0, ptr %5, align 4
  br label %.thread117

19:                                               ; preds = %10
  %.pr = load i32, ptr %5, align 4
  %.not92 = icmp eq i32 %.pr, 0
  br i1 %.not92, label %.thread117, label %20

20:                                               ; preds = %19
  %21 = getelementptr inbounds nuw i8, ptr %6, i64 16
  store i32 %2, ptr %21, align 8
  %22 = sext i32 %.pr to i64
  %23 = getelementptr inbounds nuw i8, ptr %6, i64 8
  store i64 %22, ptr %23, align 8
  %24 = load ptr, ptr @X11_XGetVisualInfo, align 8
  %25 = call ptr %24(ptr noundef %1, i64 noundef 3, ptr noundef nonnull %6, ptr noundef nonnull %7) #4
  %26 = icmp ne ptr %25, null
  %or.cond = select i1 %3, i1 %26, i1 false
  br i1 %or.cond, label %27, label %41

27:                                               ; preds = %20
  %28 = call i32 @X11_GetPixelFormatFromVisualInfo(ptr noundef %1, ptr noundef nonnull %25) #4
  %.not93 = icmp eq i32 %28, 0
  %.mask = and i32 %28, -268435456
  %.not94 = icmp eq i32 %.mask, 268435456
  %or.cond104 = or i1 %.not93, %.not94
  br i1 %or.cond104, label %29, label %.thread138

29:                                               ; preds = %27
  %30 = lshr i32 %28, 24
  %31 = and i32 %30, 15
  %.off = add nsw i32 %31, -4
  %switch = icmp ult i32 %.off, 3
  br i1 %switch, label %32, label %35

32:                                               ; preds = %29
  %33 = lshr i32 %28, 20
  %34 = and i32 %33, 15
  switch i32 %34, label %.thread138 [
    i32 3, label %.thread121
    i32 4, label %.thread121
    i32 7, label %.thread121
    i32 8, label %.thread121
  ]

35:                                               ; preds = %29
  %.off108 = add nsw i32 %31, -7
  %switch109 = icmp ult i32 %.off108, 5
  br i1 %switch109, label %36, label %.thread138

36:                                               ; preds = %35
  %37 = lshr i32 %28, 20
  %38 = and i32 %37, 15
  switch i32 %38, label %.thread138 [
    i32 3, label %.thread121
    i32 2, label %.thread121
    i32 6, label %.thread121
    i32 5, label %.thread121
  ]

.thread138:                                       ; preds = %32, %27, %35, %36
  %39 = load ptr, ptr @X11_XFree, align 8
  %40 = call i32 %39(ptr noundef nonnull %25) #4
  br label %.thread117

41:                                               ; preds = %20
  %.not97 = icmp eq ptr %25, null
  br i1 %.not97, label %.thread117, label %.thread121

.thread117:                                       ; preds = %.thread, %.thread138, %19, %41
  %42 = getelementptr inbounds nuw i8, ptr %6, i64 16
  store i32 %2, ptr %42, align 8
  %43 = load ptr, ptr @X11_XGetVisualInfo, align 8
  %44 = call ptr %43(ptr noundef %1, i64 noundef 2, ptr noundef nonnull %6, ptr noundef nonnull %7) #4
  %45 = load i32, ptr %7, align 4
  %.not103133 = icmp sgt i32 %45, 0
  %or.cond135 = select i1 %3, i1 %.not103133, i1 false
  br i1 %or.cond135, label %.lr.ph, label %.thread121

.lr.ph:                                           ; preds = %.thread117, %.thread141
  %indvars.iv = phi i64 [ %indvars.iv.next, %.thread141 ], [ 0, %.thread117 ]
  %46 = getelementptr inbounds nuw %struct.XVisualInfo, ptr %44, i64 %indvars.iv
  %47 = call i32 @X11_GetPixelFormatFromVisualInfo(ptr noundef %1, ptr noundef %46) #4
  %.not98 = icmp eq i32 %47, 0
  %.mask100 = and i32 %47, -268435456
  %.not99 = icmp eq i32 %.mask100, 268435456
  %or.cond106 = or i1 %.not98, %.not99
  br i1 %or.cond106, label %48, label %.thread141

48:                                               ; preds = %.lr.ph
  %49 = lshr i32 %47, 24
  %50 = and i32 %49, 15
  %.off110 = add nsw i32 %50, -4
  %switch111 = icmp ult i32 %.off110, 3
  br i1 %switch111, label %51, label %54

51:                                               ; preds = %48
  %52 = lshr i32 %47, 20
  %53 = and i32 %52, 15
  switch i32 %53, label %.thread141 [
    i32 3, label %58
    i32 4, label %58
    i32 7, label %58
    i32 8, label %58
  ]

54:                                               ; preds = %48
  %.off112 = add nsw i32 %50, -7
  %switch113 = icmp ult i32 %.off112, 5
  br i1 %switch113, label %55, label %.thread141

55:                                               ; preds = %54
  %56 = lshr i32 %47, 20
  %57 = and i32 %56, 15
  switch i32 %57, label %.thread141 [
    i32 3, label %58
    i32 2, label %58
    i32 6, label %58
    i32 5, label %58
  ]

58:                                               ; preds = %51, %51, %51, %51, %55, %55, %55, %55
  store i32 %2, ptr %42, align 8
  %59 = getelementptr inbounds nuw i8, ptr %46, i64 8
  %60 = load i64, ptr %59, align 8
  %61 = getelementptr inbounds nuw i8, ptr %6, i64 8
  store i64 %60, ptr %61, align 8
  %62 = load ptr, ptr @X11_XFree, align 8
  %63 = call i32 %62(ptr noundef %44) #4
  %64 = load ptr, ptr @X11_XGetVisualInfo, align 8
  %65 = call ptr %64(ptr noundef %1, i64 noundef 3, ptr noundef nonnull %6, ptr noundef nonnull %7) #4
  br label %.thread121

.thread141:                                       ; preds = %51, %55, %54, %.lr.ph
  %indvars.iv.next = add nuw nsw i64 %indvars.iv, 1
  %66 = load i32, ptr %7, align 4
  %67 = sext i32 %66 to i64
  %.not103 = icmp slt i64 %indvars.iv.next, %67
  br i1 %.not103, label %.lr.ph, label %.thread121, !llvm.loop !3

.thread121:                                       ; preds = %.thread141, %58, %32, %32, %32, %32, %36, %36, %36, %36, %41, %.thread117, %4
  %.0 = phi ptr [ null, %4 ], [ %25, %41 ], [ %44, %.thread117 ], [ %25, %36 ], [ %25, %36 ], [ %25, %36 ], [ %25, %36 ], [ %25, %32 ], [ %25, %32 ], [ %25, %32 ], [ %25, %32 ], [ %65, %58 ], [ %44, %.thread141 ]
  call void @llvm.lifetime.end.p0(i64 4, ptr nonnull %7) #4
  call void @llvm.lifetime.end.p0(i64 64, ptr nonnull %6) #4
  call void @llvm.lifetime.end.p0(i64 4, ptr nonnull %5) #4
  ret ptr %.0
}